; Function Attrs: nounwind sspstrong uwtable
define internal i64 @each_slice_i(i64 %0, i64 noundef %1, i32 noundef %2, ptr noundef %3, i64 %4) #0 {
  %6 = inttoptr i64 %1 to ptr
  %7 = getelementptr inbounds nuw i8, ptr %6, i64 16
  %8 = load i64, ptr %7, align 8, !tbaa !60
  %9 = getelementptr inbounds nuw i8, ptr %6, i64 32
  %10 = load i64, ptr %9, align 8, !tbaa !22
  switch i32 %2, label %13 [
    i32 0, label %rb_enum_values_pack.exit
    i32 1, label %11
  ]

11:                                               ; preds = %5
  %12 = load i64, ptr %3, align 8, !tbaa !7
  br label %rb_enum_values_pack.exit

13:                                               ; preds = %5
  %14 = sext i32 %2 to i64
  %15 = tail call i64 @rb_ary_new_from_values(i64 noundef %14, ptr noundef %3) #14
  br label %rb_enum_values_pack.exit

rb_enum_values_pack.exit:                         ; preds = %5, %11, %13
  %.0.i = phi i64 [ %12, %11 ], [ %15, %13 ], [ 4, %5 ]
  %16 = tail call i64 @rb_ary_push(i64 noundef %8, i64 noundef %.0.i) #14
  %17 = inttoptr i64 %8 to ptr
  %18 = load i64, ptr %17, align 8, !tbaa !20
  %19 = and i64 %18, 8192
  %.not.i = icmp eq i64 %19, 0
  br i1 %.not.i, label %23, label %20

20:                                               ; preds = %rb_enum_values_pack.exit
  %21 = lshr i64 %18, 15
  %22 = and i64 %21, 127
  br label %rb_array_len.exit

23:                                               ; preds = %rb_enum_values_pack.exit
  %24 = getelementptr inbounds nuw i8, ptr %17, i64 16
  %25 = load i64, ptr %24, align 8, !tbaa !22
  br label %rb_array_len.exit

rb_array_len.exit:                                ; preds = %20, %23
  %.0.i15 = phi i64 [ %22, %20 ], [ %25, %23 ]
  %26 = icmp eq i64 %.0.i15, %10
  br i1 %26, label %27, label %MEMO_V1_SET.exit

27:                                               ; preds = %rb_array_len.exit
  %28 = tail call i64 @rb_yield(i64 noundef %8) #14
  %29 = getelementptr inbounds nuw i8, ptr %6, i64 24
  %30 = load i64, ptr %29, align 8, !tbaa !67
  %.not = icmp eq i64 %30, 0
  br i1 %.not, label %38, label %31

31:                                               ; preds = %27
  %32 = tail call i64 @rb_ary_new_capa(i64 noundef %10) #14
  store i64 %32, ptr %7, align 8, !tbaa !7
  %33 = icmp eq i64 %32, 0
  %34 = and i64 %32, 7
  %35 = icmp ne i64 %34, 0
  %36 = or i1 %33, %35
  br i1 %36, label %MEMO_V1_SET.exit, label %37

37:                                               ; preds = %31
  tail call void @rb_gc_writebarrier(i64 noundef %1, i64 noundef %32) #14
  br label %MEMO_V1_SET.exit

38:                                               ; preds = %27
  %39 = tail call i64 @rb_ary_clear(i64 noundef %8) #14
  br label %MEMO_V1_SET.exit

MEMO_V1_SET.exit:                                 ; preds = %37, %31, %38, %rb_array_len.exit
  %.0 = phi i64 [ %28, %38 ], [ 4, %rb_array_len.exit ], [ %28, %31 ], [ %28, %37 ]
  ret i64 %.0
}